Certificate:
    Data:
        Version: 3 (0x2)
        Serial Number: 13 (0xd)
        Signature Algorithm: sha256WithRSAEncryption
        Issuer: C=IN, ST=Maharashtra, L=Pune, O=Josh Software Pvt. Ltd., OU=CSM, CN=csm.joshsoftware.com/emailAddress=admin@joshsoftware.com
        Validity
            Not Before: Apr 18 09:17:15 2023 GMT
            Not After : Apr 17 09:17:15 2024 GMT
        Subject: C=IN, ST=Maharashtra, O=Josh Software Pvt. Ltd., OU=csm client, CN=client.joshsoftware.com/emailAddress=client@joshsoftware.com
        Subject Public Key Info:
            Public Key Algorithm: rsaEncryption
                RSA Public-Key: (2048 bit)
                Modulus:
                    00:b9:ab:cb:7d:1f:aa:11:2b:1a:8c:28:3f:04:09:
                    c8:4e:52:e0:70:10:61:7a:04:2c:94:2f:70:64:8b:
                    5f:8c:d1:8f:ce:ee:e2:46:0a:bd:37:19:72:ad:7b:
                    cf:96:0a:a2:ab:88:15:91:2d:48:04:0a:26:7a:64:
                    f2:30:8a:55:c2:83:38:49:04:eb:66:6c:a2:6b:17:
                    c4:03:e0:e0:80:2e:ab:bf:4d:d4:c3:bd:e6:68:07:
                    53:cb:20:2a:55:38:a9:5f:e1:0c:86:2f:d7:3d:4f:
                    ac:66:92:51:b3:b6:a8:1a:5f:42:06:70:23:73:be:
                    0b:b3:80:af:26:f8:05:ef:4d:42:ef:d3:65:2b:7c:
                    55:8e:b7:df:95:97:fc:0b:14:75:3a:64:6e:2a:09:
                    fd:fb:d2:c8:5b:8d:1f:85:fe:5d:65:fc:2a:d0:3b:
                    f3:dd:b5:0e:91:29:ef:88:6a:8d:9f:82:5e:b3:e1:
                    0b:fe:b9:20:67:42:49:6d:94:d1:5e:c1:4d:b1:c0:
                    fc:18:9e:3c:65:10:c3:e8:04:4d:10:6b:3e:d8:b6:
                    15:2c:f6:33:b9:cc:e4:5f:8e:76:66:a0:8e:fe:93:
                    53:c1:2c:cf:b3:81:b2:19:b4:af:3b:fe:b7:69:e2:
                    ac:10:65:24:cd:45:86:85:39:1d:21:cc:66:6b:15:
                    be:fb
                Exponent: 65537 (0x10001)
        X509v3 extensions:
            X509v3 Basic Constraints: 
                CA:FALSE
            Netscape Comment: 
                OpenSSL Generated Certificate
            X509v3 Subject Key Identifier: 
                C9:3A:B2:97:95:D9:45:3E:E2:77:E7:70:C7:84:46:85:CF:7C:AC:64
            X509v3 Authority Key Identifier: 
                DirName:/C=IN/ST=Maharashtra/L=Pune/O=Josh Software Pvt. Ltd./OU=CSM/CN=csm.joshsoftware.com/emailAddress=admin@joshsoftware.com
                serial:0F:3A:1D:9A:F3:4D:8A:03:16:08:EE:D5:6C:8D:2F:FF:B6:0B:98:62

    Signature Algorithm: sha256WithRSAEncryption
         b2:10:0f:45:68:36:25:19:f3:1b:af:90:08:44:23:3e:77:77:
         25:32:e5:df:f3:71:1e:ab:4b:4c:34:ec:b5:d4:e9:c7:65:d8:
         65:55:c9:a1:65:2a:74:a6:27:51:a7:40:17:e9:9e:db:a8:e3:
         1b:3f:99:28:56:d6:44:02:c8:a4:11:c9:cf:ec:fc:e4:ca:6f:
         10:96:c0:c8:90:83:f2:c3:5e:f9:05:cb:7f:bb:0d:e3:19:15:
         4a:ff:9d:e9:0c:d4:b7:32:5f:8f:7e:da:bb:7a:86:27:dc:fa:
         e1:8b:f2:38:5f:33:77:98:ad:83:ba:24:ab:bd:a8:da:b5:b2:
         62:91:a8:a2:7a:27:4e:ed:d0:6e:53:ab:90:dd:b3:ad:2d:61:
         65:2d:f9:11:50:cd:6b:6e:da:57:ad:c2:ed:53:72:71:21:87:
         7c:1c:8c:94:06:48:24:07:6c:e9:25:5f:2d:fc:0f:d1:6f:96:
         a2:ee:af:2c:ea:3e:c2:bf:61:88:57:60:7b:9a:02:af:7e:1a:
         1c:d4:35:8e:0c:65:ef:8a:94:8a:d6:c2:0f:d1:9b:ff:ad:bb:
         03:2a:11:9a:ff:00:eb:9e:58:47:b1:59:57:de:ff:70:06:9b:
         37:f0:e2:63:79:d2:01:e2:a7:db:fc:0f:f1:32:07:d5:2a:69:
         d1:b0:8f:89
-----BEGIN CERTIFICATE-----
MIIE/DCCA+SgAwIBAgIBDTANBgkqhkiG9w0BAQsFADCBqDELMAkGA1UEBhMCSU4x
FDASBgNVBAgMC01haGFyYXNodHJhMQ0wCwYDVQQHDARQdW5lMSAwHgYDVQQKDBdK
b3NoIFNvZnR3YXJlIFB2dC4gTHRkLjEMMAoGA1UECwwDQ1NNMR0wGwYDVQQDDBRj
c20uam9zaHNvZnR3YXJlLmNvbTElMCMGCSqGSIb3DQEJARYWYWRtaW5Aam9zaHNv
ZnR3YXJlLmNvbTAeFw0yMzA0MTgwOTE3MTVaFw0yNDA0MTcwOTE3MTVaMIGkMQsw
CQYDVQQGEwJJTjEUMBIGA1UECAwLTWFoYXJhc2h0cmExIDAeBgNVBAoMF0pvc2gg
U29mdHdhcmUgUHZ0LiBMdGQuMRMwEQYDVQQLDApjc20gY2xpZW50MSAwHgYDVQQD
DBdjbGllbnQuam9zaHNvZnR3YXJlLmNvbTEmMCQGCSqGSIb3DQEJARYXY2xpZW50
QGpvc2hzb2Z0d2FyZS5jb20wggEiMA0GCSqGSIb3DQEBAQUAA4IBDwAwggEKAoIB
AQC5q8t9H6oRKxqMKD8ECchOUuBwEGF6BCyUL3Bki1+M0Y/O7uJGCr03GXKte8+W
CqKriBWRLUgECiZ6ZPIwilXCgzhJBOtmbKJrF8QD4OCALqu/TdTDveZoB1PLICpV
OKlf4QyGL9c9T6xmklGztqgaX0IGcCNzvguzgK8m+AXvTULv02UrfFWOt9+Vl/wL
FHU6ZG4qCf370shbjR+F/l1l/CrQO/PdtQ6RKe+Iao2fgl6z4Qv+uSBnQkltlNFe
wU2xwPwYnjxlEMPoBE0Qaz7YthUs9jO5zORfjnZmoI7+k1PBLM+zgbIZtK87/rdp
4qwQZSTNRYaFOR0hzGZrFb77AgMBAAGjggExMIIBLTAJBgNVHRMEAjAAMCwGCWCG
SAGG+EIBDQQfFh1PcGVuU1NMIEdlbmVyYXRlZCBDZXJ0aWZpY2F0ZTAdBgNVHQ4E
FgQUyTqyl5XZRT7id+dwx4RGhc98rGQwgdIGA1UdIwSByjCBx6GBrqSBqzCBqDEL
MAkGA1UEBhMCSU4xFDASBgNVBAgMC01haGFyYXNodHJhMQ0wCwYDVQQHDARQdW5l
MSAwHgYDVQQKDBdKb3NoIFNvZnR3YXJlIFB2dC4gTHRkLjEMMAoGA1UECwwDQ1NN
MR0wGwYDVQQDDBRjc20uam9zaHNvZnR3YXJlLmNvbTElMCMGCSqGSIb3DQEJARYW
YWRtaW5Aam9zaHNvZnR3YXJlLmNvbYIUDzodmvNNigMWCO7VbI0v/7YLmGIwDQYJ
KoZIhvcNAQELBQADggEBALIQD0VoNiUZ8xuvkAhEIz53dyUy5d/zcR6rS0w07LXU
6cdl2GVVyaFlKnSmJ1GnQBfpntuo4xs/mShW1kQCyKQRyc/s/OTKbxCWwMiQg/LD
XvkFy3+7DeMZFUr/nekM1LcyX49+2rt6hifc+uGL8jhfM3eYrYO6JKu9qNq1smKR
qKJ6J07t0G5Tq5Dds60tYWUt+RFQzWtu2letwu1TcnEhh3wcjJQGSCQHbOklXy38
D9FvlqLuryzqPsK/YYhXYHuaAq9+GhzUNY4MZe+KlIrWwg/Rm/+tuwMqEZr/AOue
WEexWVfe/3AGmzfw4mN50gHip9v8D/EyB9UqadGwj4k=
-----END CERTIFICATE-----
