Certificate:
    Data:
        Version: 3 (0x2)
        Serial Number: 14 (0xe)
        Signature Algorithm: sha256WithRSAEncryption
        Issuer: C=IN, ST=Maharashtra, L=Pune, O=Josh Software Pvt. Ltd., OU=CSM, CN=csm.joshsoftware.com/emailAddress=admin@joshsoftware.com
        Validity
            Not Before: Apr 18 09:17:23 2023 GMT
            Not After : Apr 17 09:17:23 2024 GMT
        Subject: C=IN, ST=Maharashtra, O=Josh Software Pvt. Ltd., OU=csm client, CN=client1.joshsoftware.com/emailAddress=client1@joshsoftware.com
        Subject Public Key Info:
            Public Key Algorithm: rsaEncryption
                RSA Public-Key: (2048 bit)
                Modulus:
                    00:c1:a7:72:3c:41:4c:89:fd:eb:10:43:56:82:62:
                    55:ca:e6:97:93:f7:40:dd:64:eb:0c:60:c0:b4:d8:
                    a3:f8:9e:02:51:5d:28:42:b5:c3:70:b7:05:5d:95:
                    57:5e:e4:20:6c:1d:b7:c5:ce:10:9e:99:72:8e:bd:
                    0e:c2:67:c6:17:d2:57:2f:03:19:07:7b:39:82:d6:
                    1c:ba:48:04:d6:5e:1d:7b:39:06:2b:82:ea:89:cd:
                    d9:2f:1f:0e:b5:75:31:30:6d:6e:dd:4e:28:c5:4b:
                    3f:27:ce:ac:1e:4b:2c:67:06:32:d3:2b:e1:bf:fa:
                    83:c6:f7:e4:88:64:be:88:03:f3:d3:00:34:65:fe:
                    a9:c6:c8:f4:fd:ac:bd:17:0a:86:e9:c4:f4:88:9f:
                    e8:07:25:2b:53:14:2a:a4:f6:e8:73:9b:94:c1:bb:
                    2b:99:3c:41:80:7b:d3:f1:38:2d:19:aa:f8:f6:81:
                    2d:81:32:f7:12:83:84:02:fc:80:e0:d0:b6:3f:a3:
                    d0:49:2c:5b:11:b5:11:81:c5:b0:ce:c8:2d:fa:d2:
                    ef:c5:7b:53:18:d3:cf:f8:0e:33:88:16:01:1d:24:
                    64:d3:6f:6b:e9:5e:e9:a7:ec:b8:0f:83:9b:39:9a:
                    4e:ce:0a:ac:34:46:32:ce:c2:62:d9:11:3b:a7:e7:
                    7c:7b
                Exponent: 65537 (0x10001)
        X509v3 extensions:
            X509v3 Basic Constraints: 
                CA:FALSE
            Netscape Comment: 
                OpenSSL Generated Certificate
            X509v3 Subject Key Identifier: 
                04:3C:71:62:C3:73:19:36:09:1B:AD:24:11:59:AA:D4:9C:7B:E6:3A
            X509v3 Authority Key Identifier: 
                DirName:/C=IN/ST=Maharashtra/L=Pune/O=Josh Software Pvt. Ltd./OU=CSM/CN=csm.joshsoftware.com/emailAddress=admin@joshsoftware.com
                serial:0F:3A:1D:9A:F3:4D:8A:03:16:08:EE:D5:6C:8D:2F:FF:B6:0B:98:62

    Signature Algorithm: sha256WithRSAEncryption
         db:b6:8f:6c:f1:92:b7:ab:8d:aa:67:3c:6e:51:d3:27:2f:62:
         e1:ea:8e:29:66:79:a9:d0:59:f5:e6:92:b7:41:3c:06:e4:f3:
         6c:eb:a8:98:6e:a0:20:f7:6a:4e:29:ac:d7:aa:4b:6f:61:7e:
         d2:d8:a5:82:85:92:e9:ce:c2:83:b1:03:f5:77:d5:34:ea:5b:
         e8:40:a3:b1:7c:bf:6f:94:ff:41:ed:86:1d:33:f7:8c:cd:aa:
         b0:ca:47:6f:b8:48:be:7d:24:ba:c0:67:04:9a:e1:1d:72:d1:
         54:12:94:f5:ea:26:82:0f:cd:ab:a2:2d:a4:64:df:e9:ab:3b:
         f7:f9:4e:28:bb:4b:e1:78:a7:5b:a7:17:22:22:a4:56:44:38:
         65:90:2d:e3:86:e0:af:d2:50:ea:b4:a7:89:27:b2:eb:f9:ed:
         a4:e5:c9:90:7e:24:bd:dd:a2:a9:73:67:2c:87:58:ea:b3:a7:
         e5:5d:d5:9f:34:ed:1d:f8:a6:d2:14:b1:8c:05:09:a4:3b:92:
         88:4f:9a:97:e6:73:01:91:4e:47:5a:f8:c9:d1:c3:a4:20:ba:
         77:17:60:ec:c7:34:ed:cd:f0:e1:a6:0e:b2:49:86:90:5a:93:
         94:7d:7b:50:87:83:9d:c7:71:de:4a:0d:5c:ef:56:53:0d:5e:
         8b:8a:d4:39
-----BEGIN CERTIFICATE-----
MIIE/jCCA+agAwIBAgIBDjANBgkqhkiG9w0BAQsFADCBqDELMAkGA1UEBhMCSU4x
FDASBgNVBAgMC01haGFyYXNodHJhMQ0wCwYDVQQHDARQdW5lMSAwHgYDVQQKDBdK
b3NoIFNvZnR3YXJlIFB2dC4gTHRkLjEMMAoGA1UECwwDQ1NNMR0wGwYDVQQDDBRj
c20uam9zaHNvZnR3YXJlLmNvbTElMCMGCSqGSIb3DQEJARYWYWRtaW5Aam9zaHNv
ZnR3YXJlLmNvbTAeFw0yMzA0MTgwOTE3MjNaFw0yNDA0MTcwOTE3MjNaMIGmMQsw
CQYDVQQGEwJJTjEUMBIGA1UECAwLTWFoYXJhc2h0cmExIDAeBgNVBAoMF0pvc2gg
U29mdHdhcmUgUHZ0LiBMdGQuMRMwEQYDVQQLDApjc20gY2xpZW50MSEwHwYDVQQD
DBhjbGllbnQxLmpvc2hzb2Z0d2FyZS5jb20xJzAlBgkqhkiG9w0BCQEWGGNsaWVu
dDFAam9zaHNvZnR3YXJlLmNvbTCCASIwDQYJKoZIhvcNAQEBBQADggEPADCCAQoC
ggEBAMGncjxBTIn96xBDVoJiVcrml5P3QN1k6wxgwLTYo/ieAlFdKEK1w3C3BV2V
V17kIGwdt8XOEJ6Zco69DsJnxhfSVy8DGQd7OYLWHLpIBNZeHXs5BiuC6onN2S8f
DrV1MTBtbt1OKMVLPyfOrB5LLGcGMtMr4b/6g8b35IhkvogD89MANGX+qcbI9P2s
vRcKhunE9Iif6AclK1MUKqT26HOblMG7K5k8QYB70/E4LRmq+PaBLYEy9xKDhAL8
gODQtj+j0EksWxG1EYHFsM7ILfrS78V7UxjTz/gOM4gWAR0kZNNva+le6afsuA+D
mzmaTs4KrDRGMs7CYtkRO6fnfHsCAwEAAaOCATEwggEtMAkGA1UdEwQCMAAwLAYJ
YIZIAYb4QgENBB8WHU9wZW5TU0wgR2VuZXJhdGVkIENlcnRpZmljYXRlMB0GA1Ud
DgQWBBQEPHFiw3MZNgkbrSQRWarUnHvmOjCB0gYDVR0jBIHKMIHHoYGupIGrMIGo
MQswCQYDVQQGEwJJTjEUMBIGA1UECAwLTWFoYXJhc2h0cmExDTALBgNVBAcMBFB1
bmUxIDAeBgNVBAoMF0pvc2ggU29mdHdhcmUgUHZ0LiBMdGQuMQwwCgYDVQQLDAND
U00xHTAbBgNVBAMMFGNzbS5qb3Noc29mdHdhcmUuY29tMSUwIwYJKoZIhvcNAQkB
FhZhZG1pbkBqb3Noc29mdHdhcmUuY29tghQPOh2a802KAxYI7tVsjS//tguYYjAN
BgkqhkiG9w0BAQsFAAOCAQEA27aPbPGSt6uNqmc8blHTJy9i4eqOKWZ5qdBZ9eaS
t0E8BuTzbOuomG6gIPdqTims16pLb2F+0tilgoWS6c7Cg7ED9XfVNOpb6ECjsXy/
b5T/Qe2GHTP3jM2qsMpHb7hIvn0kusBnBJrhHXLRVBKU9eomgg/Nq6ItpGTf6as7
9/lOKLtL4XinW6cXIiKkVkQ4ZZAt44bgr9JQ6rSniSey6/ntpOXJkH4kvd2iqXNn
LIdY6rOn5V3VnzTtHfim0hSxjAUJpDuSiE+al+ZzAZFOR1r4ydHDpCC6dxdg7Mc0
7c3w4aYOskmGkFqTlH17UIeDncdx3koNXO9WUw1ei4rUOQ==
-----END CERTIFICATE-----
