Certificate:
    Data:
        Version: 3 (0x2)
        Serial Number: 15 (0xf)
        Signature Algorithm: sha256WithRSAEncryption
        Issuer: C=IN, ST=Maharashtra, L=Pune, O=Josh Software Pvt. Ltd., OU=CSM, CN=csm.joshsoftware.com/emailAddress=admin@joshsoftware.com
        Validity
            Not Before: Apr 18 09:17:29 2023 GMT
            Not After : Apr 17 09:17:29 2024 GMT
        Subject: C=IN, ST=Maharashtra, O=Josh Software Pvt. Ltd., OU=csm client, CN=client2.joshsoftware.com/emailAddress=client2@joshsoftware.com
        Subject Public Key Info:
            Public Key Algorithm: rsaEncryption
                RSA Public-Key: (2048 bit)
                Modulus:
                    00:bd:2c:ab:2a:10:0c:0d:23:31:1d:82:5b:f2:a1:
                    04:fb:24:98:31:ad:89:82:fc:16:d7:06:5b:47:18:
                    67:97:ab:07:3c:4b:25:45:96:8d:33:3a:7f:14:ee:
                    ab:54:dc:cc:84:10:08:1e:80:26:77:bf:fd:81:fc:
                    c8:88:bd:41:9c:2e:4f:3f:bc:0e:9d:12:5e:70:10:
                    93:5a:ba:b2:b9:81:de:07:e1:50:83:fa:95:23:b8:
                    64:56:45:08:27:a1:c6:5c:f1:e9:25:e9:08:60:1d:
                    15:92:83:46:f4:04:1a:69:08:c1:5c:53:b7:49:cc:
                    bd:45:b3:a7:56:cf:24:38:fb:a0:a4:f0:80:03:36:
                    df:31:95:c4:d9:2c:37:59:5b:1d:fc:3d:78:72:c6:
                    87:ee:17:5c:b4:58:8b:1b:61:33:85:bb:a1:e0:47:
                    45:20:63:20:f2:0c:c6:85:72:30:9f:6b:09:91:d3:
                    b5:cf:75:6b:6b:42:c3:14:7b:de:e2:99:db:14:3c:
                    93:af:00:4d:da:4f:45:d5:44:66:b6:5a:38:a5:27:
                    a7:e7:f9:55:2c:34:2b:c3:3d:18:db:c5:b8:f9:aa:
                    da:ff:6b:45:17:fa:9a:bb:ac:cd:7d:d6:27:be:a3:
                    1f:ae:4b:82:5d:8a:32:44:3c:e2:73:8c:92:5c:fc:
                    09:c7
                Exponent: 65537 (0x10001)
        X509v3 extensions:
            X509v3 Basic Constraints: 
                CA:FALSE
            Netscape Comment: 
                OpenSSL Generated Certificate
            X509v3 Subject Key Identifier: 
                F6:06:C7:C2:CE:C0:C1:61:BE:00:55:06:A6:CD:E9:EC:CC:67:63:CE
            X509v3 Authority Key Identifier: 
                DirName:/C=IN/ST=Maharashtra/L=Pune/O=Josh Software Pvt. Ltd./OU=CSM/CN=csm.joshsoftware.com/emailAddress=admin@joshsoftware.com
                serial:0F:3A:1D:9A:F3:4D:8A:03:16:08:EE:D5:6C:8D:2F:FF:B6:0B:98:62

    Signature Algorithm: sha256WithRSAEncryption
         3d:c9:94:c7:5e:19:75:4d:cf:6c:b5:25:92:6b:c4:3b:84:8a:
         dc:83:1d:3f:d7:54:cb:31:29:07:8c:6d:ec:14:ee:68:df:d0:
         7a:d1:f6:80:43:e0:c5:6b:80:36:94:f5:02:de:79:14:35:e0:
         5e:01:ae:84:ed:ca:3b:1e:8f:9f:04:84:6c:a5:5a:fe:1c:e8:
         fd:81:12:e6:67:7b:1e:b3:c1:ee:c9:67:8e:82:8b:ec:83:5d:
         43:00:ae:50:be:ef:e4:2d:65:79:2b:89:8f:de:3b:67:7d:78:
         86:5e:22:c4:83:f7:60:2a:7f:b5:02:68:4c:8e:48:3f:7d:11:
         40:2f:0b:a5:1d:3f:d0:7d:d7:e5:73:f9:ac:03:ee:9f:9e:6d:
         f5:13:5e:ab:94:f1:13:ac:16:e4:36:71:3e:9d:34:32:ab:06:
         5d:65:aa:96:84:b0:bc:e7:eb:ca:8a:5e:2d:e5:5e:2d:cd:5f:
         46:07:a7:0b:9c:84:96:85:72:05:16:28:79:85:a5:ca:e1:82:
         3d:00:b1:ee:6a:fb:50:c6:89:5c:4b:9e:f3:e8:e4:3e:de:e9:
         2f:1e:09:4e:ea:96:a2:10:ee:c8:8c:7f:09:ee:e8:2c:89:85:
         3b:ba:21:43:8b:58:10:12:d9:90:72:1e:c5:6e:27:44:78:59:
         5e:90:70:77
-----BEGIN CERTIFICATE-----
MIIE/jCCA+agAwIBAgIBDzANBgkqhkiG9w0BAQsFADCBqDELMAkGA1UEBhMCSU4x
FDASBgNVBAgMC01haGFyYXNodHJhMQ0wCwYDVQQHDARQdW5lMSAwHgYDVQQKDBdK
b3NoIFNvZnR3YXJlIFB2dC4gTHRkLjEMMAoGA1UECwwDQ1NNMR0wGwYDVQQDDBRj
c20uam9zaHNvZnR3YXJlLmNvbTElMCMGCSqGSIb3DQEJARYWYWRtaW5Aam9zaHNv
ZnR3YXJlLmNvbTAeFw0yMzA0MTgwOTE3MjlaFw0yNDA0MTcwOTE3MjlaMIGmMQsw
CQYDVQQGEwJJTjEUMBIGA1UECAwLTWFoYXJhc2h0cmExIDAeBgNVBAoMF0pvc2gg
U29mdHdhcmUgUHZ0LiBMdGQuMRMwEQYDVQQLDApjc20gY2xpZW50MSEwHwYDVQQD
DBhjbGllbnQyLmpvc2hzb2Z0d2FyZS5jb20xJzAlBgkqhkiG9w0BCQEWGGNsaWVu
dDJAam9zaHNvZnR3YXJlLmNvbTCCASIwDQYJKoZIhvcNAQEBBQADggEPADCCAQoC
ggEBAL0sqyoQDA0jMR2CW/KhBPskmDGtiYL8FtcGW0cYZ5erBzxLJUWWjTM6fxTu
q1TczIQQCB6AJne//YH8yIi9QZwuTz+8Dp0SXnAQk1q6srmB3gfhUIP6lSO4ZFZF
CCehxlzx6SXpCGAdFZKDRvQEGmkIwVxTt0nMvUWzp1bPJDj7oKTwgAM23zGVxNks
N1lbHfw9eHLGh+4XXLRYixthM4W7oeBHRSBjIPIMxoVyMJ9rCZHTtc91a2tCwxR7
3uKZ2xQ8k68ATdpPRdVEZrZaOKUnp+f5VSw0K8M9GNvFuPmq2v9rRRf6mruszX3W
J76jH65Lgl2KMkQ84nOMklz8CccCAwEAAaOCATEwggEtMAkGA1UdEwQCMAAwLAYJ
YIZIAYb4QgENBB8WHU9wZW5TU0wgR2VuZXJhdGVkIENlcnRpZmljYXRlMB0GA1Ud
DgQWBBT2BsfCzsDBYb4AVQamzenszGdjzjCB0gYDVR0jBIHKMIHHoYGupIGrMIGo
MQswCQYDVQQGEwJJTjEUMBIGA1UECAwLTWFoYXJhc2h0cmExDTALBgNVBAcMBFB1
bmUxIDAeBgNVBAoMF0pvc2ggU29mdHdhcmUgUHZ0LiBMdGQuMQwwCgYDVQQLDAND
U00xHTAbBgNVBAMMFGNzbS5qb3Noc29mdHdhcmUuY29tMSUwIwYJKoZIhvcNAQkB
FhZhZG1pbkBqb3Noc29mdHdhcmUuY29tghQPOh2a802KAxYI7tVsjS//tguYYjAN
BgkqhkiG9w0BAQsFAAOCAQEAPcmUx14ZdU3PbLUlkmvEO4SK3IMdP9dUyzEpB4xt
7BTuaN/QetH2gEPgxWuANpT1At55FDXgXgGuhO3KOx6PnwSEbKVa/hzo/YES5md7
HrPB7slnjoKL7INdQwCuUL7v5C1leSuJj947Z314hl4ixIP3YCp/tQJoTI5IP30R
QC8LpR0/0H3X5XP5rAPun55t9RNeq5TxE6wW5DZxPp00MqsGXWWqloSwvOfryope
LeVeLc1fRgenC5yEloVyBRYoeYWlyuGCPQCx7mr7UMaJXEue8+jkPt7pLx4JTuqW
ohDuyIx/Ce7oLImFO7ohQ4tYEBLZkHIexW4nRHhZXpBwdw==
-----END CERTIFICATE-----
