Certificate:
    Data:
        Version: 3 (0x2)
        Serial Number: 16 (0x10)
        Signature Algorithm: sha256WithRSAEncryption
        Issuer: C=IN, ST=Maharashtra, L=Pune, O=Josh Software Pvt. Ltd., OU=CSM, CN=csm.joshsoftware.com/emailAddress=admin@joshsoftware.com
        Validity
            Not Before: Apr 18 09:32:26 2023 GMT
            Not After : Apr 17 09:32:26 2024 GMT
        Subject: C=IN, ST=Maharashtra, O=Josh Software Pvt. Ltd., OU=POC, CN=CMS/emailAddress=abc@xyz.com
        Subject Public Key Info:
            Public Key Algorithm: rsaEncryption
                RSA Public-Key: (2048 bit)
                Modulus:
                    00:c3:09:ca:1d:06:f3:a3:a6:3f:56:b3:e3:86:7e:
                    46:c4:f5:bd:c7:f5:ae:73:d8:21:b6:64:89:65:12:
                    ea:1b:31:99:69:c7:c2:86:b2:da:4b:fa:ab:b6:77:
                    00:71:92:47:bd:e5:61:92:5d:9b:9c:ef:e5:10:90:
                    e0:aa:cb:98:3f:b6:72:0a:b3:79:74:a0:5c:de:2a:
                    9e:6d:76:cb:de:1f:73:71:5a:00:48:44:da:31:4a:
                    5a:3d:a8:10:01:d0:67:ce:19:e0:ec:4a:fc:23:ad:
                    97:5d:9e:60:74:45:82:97:03:51:42:2b:ba:13:96:
                    30:e3:d2:9a:2b:15:83:7d:8f:a5:e2:6d:ca:0c:90:
                    43:6d:14:a6:37:c2:ec:4a:c3:87:5e:62:08:2b:ef:
                    e1:0c:d1:1a:ba:98:2e:e5:e2:2b:82:98:a2:96:69:
                    92:b6:29:e8:8f:bf:f0:cf:31:1e:0f:98:46:4d:91:
                    76:f6:fe:93:6d:a7:98:91:14:0e:78:8d:70:07:cb:
                    3b:f1:b5:8a:e4:25:e0:26:03:bb:da:dc:48:f9:50:
                    8c:40:ea:e1:cb:2d:91:1a:fe:9c:ee:75:21:22:4f:
                    19:2e:f3:53:18:e0:89:18:61:f1:2b:f0:ac:46:fc:
                    57:34:bf:33:57:9f:9c:a0:eb:44:af:91:4f:27:9c:
                    6a:77
                Exponent: 65537 (0x10001)
        X509v3 extensions:
            X509v3 Basic Constraints: 
                CA:FALSE
            Netscape Comment: 
                OpenSSL Generated Certificate
            X509v3 Subject Key Identifier: 
                41:08:A7:E7:99:EC:EB:A3:9C:CD:AF:AB:23:08:A7:58:EB:78:10:99
            X509v3 Authority Key Identifier: 
                DirName:/C=IN/ST=Maharashtra/L=Pune/O=Josh Software Pvt. Ltd./OU=CSM/CN=csm.joshsoftware.com/emailAddress=admin@joshsoftware.com
                serial:0F:3A:1D:9A:F3:4D:8A:03:16:08:EE:D5:6C:8D:2F:FF:B6:0B:98:62

    Signature Algorithm: sha256WithRSAEncryption
         30:fe:03:07:69:3d:f7:28:ea:87:6d:90:12:91:4d:48:85:95:
         24:e7:b6:b0:78:fe:24:1c:55:1e:03:9a:38:b6:cf:7e:fb:38:
         40:7e:25:5d:c8:0c:97:ad:4b:4b:f5:0f:41:fe:7b:42:04:bd:
         78:b5:27:26:7b:51:76:45:09:5e:b1:6a:cf:7e:c9:b4:f0:c4:
         74:17:67:63:b4:cd:54:6d:ae:67:1e:ed:c0:e8:49:99:52:b2:
         84:00:53:c3:27:26:4e:56:34:a9:d5:79:d0:87:6a:ad:c0:69:
         ee:a7:f4:0c:07:aa:4e:45:43:52:79:a6:54:03:b5:22:d0:b2:
         01:a8:7c:51:13:e5:25:d6:22:4c:06:b5:a5:be:54:5f:a7:9f:
         44:c6:c7:0f:a5:85:82:b7:a4:6c:d0:0e:42:bd:41:7c:4d:57:
         3c:4d:52:33:ab:c6:0b:39:85:b0:14:1b:fe:be:b0:24:62:94:
         e5:ea:d1:d3:86:b2:76:b7:55:fe:10:20:e8:e4:ae:3b:17:14:
         33:6a:9b:b7:7d:92:53:03:0f:d8:57:36:d5:27:5d:9f:10:68:
         33:b9:92:39:de:6e:77:ba:66:f7:ae:7c:db:8f:b1:10:34:00:
         33:b7:36:2f:bc:6c:50:86:fb:a0:80:a7:f4:cd:7d:a2:55:c3:
         ee:94:d2:6d
-----BEGIN CERTIFICATE-----
MIIE1DCCA7ygAwIBAgIBEDANBgkqhkiG9w0BAQsFADCBqDELMAkGA1UEBhMCSU4x
FDASBgNVBAgMC01haGFyYXNodHJhMQ0wCwYDVQQHDARQdW5lMSAwHgYDVQQKDBdK
b3NoIFNvZnR3YXJlIFB2dC4gTHRkLjEMMAoGA1UECwwDQ1NNMR0wGwYDVQQDDBRj
c20uam9zaHNvZnR3YXJlLmNvbTElMCMGCSqGSIb3DQEJARYWYWRtaW5Aam9zaHNv
ZnR3YXJlLmNvbTAeFw0yMzA0MTgwOTMyMjZaFw0yNDA0MTcwOTMyMjZaMH0xCzAJ
BgNVBAYTAklOMRQwEgYDVQQIDAtNYWhhcmFzaHRyYTEgMB4GA1UECgwXSm9zaCBT
b2Z0d2FyZSBQdnQuIEx0ZC4xDDAKBgNVBAsMA1BPQzEMMAoGA1UEAwwDQ01TMRow
GAYJKoZIhvcNAQkBFgthYmNAeHl6LmNvbTCCASIwDQYJKoZIhvcNAQEBBQADggEP
ADCCAQoCggEBAMMJyh0G86OmP1az44Z+RsT1vcf1rnPYIbZkiWUS6hsxmWnHwoay
2kv6q7Z3AHGSR73lYZJdm5zv5RCQ4KrLmD+2cgqzeXSgXN4qnm12y94fc3FaAEhE
2jFKWj2oEAHQZ84Z4OxK/COtl12eYHRFgpcDUUIruhOWMOPSmisVg32PpeJtygyQ
Q20UpjfC7ErDh15iCCvv4QzRGrqYLuXiK4KYopZpkrYp6I+/8M8xHg+YRk2Rdvb+
k22nmJEUDniNcAfLO/G1iuQl4CYDu9rcSPlQjEDq4cstkRr+nO51ISJPGS7zUxjg
iRhh8SvwrEb8VzS/M1efnKDrRK+RTyecancCAwEAAaOCATEwggEtMAkGA1UdEwQC
MAAwLAYJYIZIAYb4QgENBB8WHU9wZW5TU0wgR2VuZXJhdGVkIENlcnRpZmljYXRl
MB0GA1UdDgQWBBRBCKfnmezro5zNr6sjCKdY63gQmTCB0gYDVR0jBIHKMIHHoYGu
pIGrMIGoMQswCQYDVQQGEwJJTjEUMBIGA1UECAwLTWFoYXJhc2h0cmExDTALBgNV
BAcMBFB1bmUxIDAeBgNVBAoMF0pvc2ggU29mdHdhcmUgUHZ0LiBMdGQuMQwwCgYD
VQQLDANDU00xHTAbBgNVBAMMFGNzbS5qb3Noc29mdHdhcmUuY29tMSUwIwYJKoZI
hvcNAQkBFhZhZG1pbkBqb3Noc29mdHdhcmUuY29tghQPOh2a802KAxYI7tVsjS//
tguYYjANBgkqhkiG9w0BAQsFAAOCAQEAMP4DB2k99yjqh22QEpFNSIWVJOe2sHj+
JBxVHgOaOLbPfvs4QH4lXcgMl61LS/UPQf57QgS9eLUnJntRdkUJXrFqz37JtPDE
dBdnY7TNVG2uZx7twOhJmVKyhABTwycmTlY0qdV50IdqrcBp7qf0DAeqTkVDUnmm
VAO1ItCyAah8URPlJdYiTAa1pb5UX6efRMbHD6WFgrekbNAOQr1BfE1XPE1SM6vG
CzmFsBQb/r6wJGKU5erR04aydrdV/hAg6OSuOxcUM2qbt32SUwMP2Fc21SddnxBo
M7mSOd5ud7pm965824+xEDQAM7c2L7xsUIb7oICn9M19olXD7pTSbQ==
-----END CERTIFICATE-----
