Certificate:
    Data:
        Version: 3 (0x2)
        Serial Number: 17 (0x11)
        Signature Algorithm: sha256WithRSAEncryption
        Issuer: C=IN, ST=Maharashtra, L=Pune, O=Josh Software Pvt. Ltd., OU=CSM, CN=csm.joshsoftware.com/emailAddress=admin@joshsoftware.com
        Validity
            Not Before: Apr 18 09:33:59 2023 GMT
            Not After : Apr 17 09:33:59 2024 GMT
        Subject: C=IN, ST=Maharashtra, O=Josh Software Pvt. Ltd., OU=POC, CN=CMS/emailAddress=1234@xyz.com
        Subject Public Key Info:
            Public Key Algorithm: rsaEncryption
                RSA Public-Key: (2048 bit)
                Modulus:
                    00:bc:4c:3f:64:7c:18:f0:ba:ac:d5:07:16:ff:a1:
                    04:a5:7b:76:98:2a:00:0a:a4:38:e1:e2:d4:61:2f:
                    7c:27:e8:d6:6d:7f:4c:40:7b:0c:7b:21:8c:91:f0:
                    40:4e:e1:f3:3e:69:4a:07:cf:84:79:aa:48:e9:ce:
                    6c:0c:d2:85:5c:b0:24:84:16:9b:60:71:9f:0b:23:
                    14:36:ff:fd:37:2f:2e:09:6f:b8:25:31:af:60:ae:
                    2d:65:87:dc:d2:88:90:93:1d:e0:44:f7:01:cd:e2:
                    12:1d:83:9c:b1:37:f5:9c:bf:a8:d5:75:11:ba:b4:
                    8a:7a:52:e5:1f:0e:2f:61:1d:a4:b1:ae:f3:e5:5e:
                    d2:c5:99:1b:f2:0a:cb:e5:63:22:93:b0:1d:e0:a6:
                    88:81:97:04:32:b1:f5:7b:8d:af:60:29:71:a7:48:
                    ba:c0:aa:8e:d3:48:0a:e0:87:96:89:8c:af:3f:61:
                    d7:43:25:33:85:5c:6a:5c:a5:fb:bd:2d:6a:ce:bc:
                    aa:51:27:b1:66:13:d0:d9:50:8b:09:14:4d:b5:c7:
                    b7:79:6c:8c:2c:ee:d8:59:8a:c6:e1:1b:c2:be:d7:
                    82:57:81:f0:a8:e7:e1:03:c0:cf:73:d1:bc:be:29:
                    1d:c0:7e:1f:6c:a5:6d:e1:2a:db:33:af:73:0c:a7:
                    0f:f5
                Exponent: 65537 (0x10001)
        X509v3 extensions:
            X509v3 Basic Constraints: 
                CA:FALSE
            Netscape Comment: 
                OpenSSL Generated Certificate
            X509v3 Subject Key Identifier: 
                8A:37:A2:2F:0F:BD:11:96:A6:0D:BC:AD:E3:C5:F3:2D:DA:F1:F4:73
            X509v3 Authority Key Identifier: 
                DirName:/C=IN/ST=Maharashtra/L=Pune/O=Josh Software Pvt. Ltd./OU=CSM/CN=csm.joshsoftware.com/emailAddress=admin@joshsoftware.com
                serial:0F:3A:1D:9A:F3:4D:8A:03:16:08:EE:D5:6C:8D:2F:FF:B6:0B:98:62

    Signature Algorithm: sha256WithRSAEncryption
         e4:90:53:7b:93:60:54:b8:5a:53:d2:a3:1a:7a:83:f5:d1:49:
         e0:c8:1f:ec:36:b1:88:f2:1e:3b:b5:85:b9:a1:9a:e9:d4:a3:
         ee:ec:87:c1:b5:e6:06:88:67:ea:70:65:85:19:d3:22:cb:17:
         d1:29:0d:7d:02:81:0e:48:dd:12:4d:f7:e4:b3:46:92:0d:ad:
         d8:ec:a7:75:a4:1d:ad:f5:9b:91:1b:76:29:6c:28:3e:6c:11:
         8c:fc:58:59:ec:45:64:2b:79:7c:40:13:20:ba:99:bc:ed:45:
         1b:46:09:3f:68:11:e9:94:df:81:70:e7:71:00:68:a8:f9:c5:
         4f:25:2c:17:52:6d:f8:8f:35:57:4c:f8:b7:6d:71:ec:18:2c:
         b7:04:6e:5a:f0:1b:64:31:0f:78:d6:d9:4f:53:2a:00:f1:6c:
         16:62:66:47:20:31:40:1e:60:c7:a8:50:f7:1d:2e:3b:83:54:
         3c:3b:f3:ca:64:cf:ce:00:5c:c1:35:c8:7b:c6:2f:0c:ee:8b:
         76:f6:8e:50:c6:90:b8:8e:a9:2a:39:06:b9:7d:48:1a:5f:cf:
         c9:00:b9:59:1c:49:39:42:da:65:fa:28:d6:3f:ea:37:21:91:
         d1:ce:70:a6:e2:13:7e:ae:a2:8a:1d:83:f6:5b:25:ef:0f:79:
         25:cb:fc:95
-----BEGIN CERTIFICATE-----
MIIE1TCCA72gAwIBAgIBETANBgkqhkiG9w0BAQsFADCBqDELMAkGA1UEBhMCSU4x
FDASBgNVBAgMC01haGFyYXNodHJhMQ0wCwYDVQQHDARQdW5lMSAwHgYDVQQKDBdK
b3NoIFNvZnR3YXJlIFB2dC4gTHRkLjEMMAoGA1UECwwDQ1NNMR0wGwYDVQQDDBRj
c20uam9zaHNvZnR3YXJlLmNvbTElMCMGCSqGSIb3DQEJARYWYWRtaW5Aam9zaHNv
ZnR3YXJlLmNvbTAeFw0yMzA0MTgwOTMzNTlaFw0yNDA0MTcwOTMzNTlaMH4xCzAJ
BgNVBAYTAklOMRQwEgYDVQQIDAtNYWhhcmFzaHRyYTEgMB4GA1UECgwXSm9zaCBT
b2Z0d2FyZSBQdnQuIEx0ZC4xDDAKBgNVBAsMA1BPQzEMMAoGA1UEAwwDQ01TMRsw
GQYJKoZIhvcNAQkBFgwxMjM0QHh5ei5jb20wggEiMA0GCSqGSIb3DQEBAQUAA4IB
DwAwggEKAoIBAQC8TD9kfBjwuqzVBxb/oQSle3aYKgAKpDjh4tRhL3wn6NZtf0xA
ewx7IYyR8EBO4fM+aUoHz4R5qkjpzmwM0oVcsCSEFptgcZ8LIxQ2//03Ly4Jb7gl
Ma9gri1lh9zSiJCTHeBE9wHN4hIdg5yxN/Wcv6jVdRG6tIp6UuUfDi9hHaSxrvPl
XtLFmRvyCsvlYyKTsB3gpoiBlwQysfV7ja9gKXGnSLrAqo7TSArgh5aJjK8/YddD
JTOFXGpcpfu9LWrOvKpRJ7FmE9DZUIsJFE21x7d5bIws7thZisbhG8K+14JXgfCo
5+EDwM9z0by+KR3Afh9spW3hKtszr3MMpw/1AgMBAAGjggExMIIBLTAJBgNVHRME
AjAAMCwGCWCGSAGG+EIBDQQfFh1PcGVuU1NMIEdlbmVyYXRlZCBDZXJ0aWZpY2F0
ZTAdBgNVHQ4EFgQUijeiLw+9EZamDbyt48XzLdrx9HMwgdIGA1UdIwSByjCBx6GB
rqSBqzCBqDELMAkGA1UEBhMCSU4xFDASBgNVBAgMC01haGFyYXNodHJhMQ0wCwYD
VQQHDARQdW5lMSAwHgYDVQQKDBdKb3NoIFNvZnR3YXJlIFB2dC4gTHRkLjEMMAoG
A1UECwwDQ1NNMR0wGwYDVQQDDBRjc20uam9zaHNvZnR3YXJlLmNvbTElMCMGCSqG
SIb3DQEJARYWYWRtaW5Aam9zaHNvZnR3YXJlLmNvbYIUDzodmvNNigMWCO7VbI0v
/7YLmGIwDQYJKoZIhvcNAQELBQADggEBAOSQU3uTYFS4WlPSoxp6g/XRSeDIH+w2
sYjyHju1hbmhmunUo+7sh8G15gaIZ+pwZYUZ0yLLF9EpDX0CgQ5I3RJN9+SzRpIN
rdjsp3WkHa31m5EbdilsKD5sEYz8WFnsRWQreXxAEyC6mbztRRtGCT9oEemU34Fw
53EAaKj5xU8lLBdSbfiPNVdM+LdtcewYLLcEblrwG2QxD3jW2U9TKgDxbBZiZkcg
MUAeYMeoUPcdLjuDVDw788pkz84AXME1yHvGLwzui3b2jlDGkLiOqSo5Brl9SBpf
z8kAuVkcSTlC2mX6KNY/6jchkdHOcKbiE36uooodg/ZbJe8PeSXL/JU=
-----END CERTIFICATE-----
