Certificate:
    Data:
        Version: 3 (0x2)
        Serial Number: 4 (0x4)
        Signature Algorithm: sha256WithRSAEncryption
        Issuer: C=IN, ST=Maharashtra, L=Pune, O=Josh Software Pvt. Ltd., OU=CSM, CN=csm.joshsoftware.com/emailAddress=admin@joshsoftware.com
        Validity
            Not Before: Apr 20 11:36:38 2023 GMT
            Not After : Apr 19 11:36:38 2024 GMT
        Subject: C=IN, ST=Maharashtra, O=Josh Software Pvt. Ltd., OU=POC, CN=CMS2/emailAddress=1@xyz.com
        Subject Public Key Info:
            Public Key Algorithm: rsaEncryption
                RSA Public-Key: (2048 bit)
                Modulus:
                    00:cd:a6:4b:9c:a4:0a:80:4d:29:5c:75:56:89:fd:
                    e8:21:4e:8f:d1:ae:96:6e:55:7f:0b:dd:77:4d:ab:
                    91:68:58:52:04:35:3a:46:74:bd:7f:06:a0:e8:c3:
                    86:d2:09:5e:1e:38:fd:ec:11:9b:ae:25:16:2f:cd:
                    7a:d3:c1:5e:e5:d1:6b:a1:92:8a:c4:45:bf:be:23:
                    40:10:1e:2f:23:40:94:b8:76:2f:51:56:e2:7b:c2:
                    3c:4d:53:92:17:88:9a:47:f2:a8:61:49:65:93:6f:
                    51:69:ed:de:60:c1:40:b1:79:d7:38:4c:e0:60:df:
                    02:c6:aa:1e:07:88:08:08:17:ce:10:02:fa:cf:b6:
                    b6:8b:db:32:60:e5:01:f4:eb:e6:13:13:d2:33:48:
                    d0:4f:b2:82:c1:ed:83:97:86:d2:b0:a1:55:12:1d:
                    61:13:60:cb:c4:78:97:c1:c0:b2:9b:ec:f1:6d:91:
                    27:44:61:fd:1e:b4:83:3f:99:8f:9d:5d:63:e8:88:
                    b2:1d:4f:5a:92:18:2e:6d:c5:d7:f7:74:ca:3e:de:
                    19:a5:34:9a:c3:b7:e7:f8:7e:9c:18:c4:6f:18:60:
                    0e:a2:76:9b:69:03:3c:52:9a:bb:96:eb:8e:7d:2c:
                    1b:e6:a6:49:bf:48:c8:7a:b6:0b:83:fa:f0:58:e9:
                    ee:63
                Exponent: 65537 (0x10001)
        X509v3 extensions:
            X509v3 Basic Constraints: 
                CA:FALSE
            Netscape Comment: 
                OpenSSL Generated Certificate
            X509v3 Subject Key Identifier: 
                61:3F:56:47:06:5E:91:E1:F9:E7:99:9B:7A:5B:33:68:EF:1E:F5:08
            X509v3 Authority Key Identifier: 
                DirName:/C=IN/ST=Maharashtra/L=Pune/O=Josh Software Pvt. Ltd./OU=CSM/CN=csm.joshsoftware.com/emailAddress=admin@joshsoftware.com
                serial:0F:3A:1D:9A:F3:4D:8A:03:16:08:EE:D5:6C:8D:2F:FF:B6:0B:98:62

    Signature Algorithm: sha256WithRSAEncryption
         b8:ec:a6:86:89:0c:1e:70:b7:13:69:de:1f:0a:9d:dd:72:b9:
         cd:51:54:4d:dd:1d:64:44:58:61:00:83:af:f7:f6:5a:14:06:
         60:66:e7:c0:86:69:e8:a8:db:b7:cc:4c:af:a2:58:4b:19:a6:
         72:62:6b:9c:1b:05:eb:7d:fb:4c:76:e5:bf:8b:f1:b5:a5:09:
         d6:bd:ea:72:c6:bf:c3:a8:cc:2d:a1:02:66:a1:8e:b8:07:8f:
         ca:58:11:7a:75:a7:70:8a:a2:6c:c6:86:4b:6b:16:81:3b:1b:
         bf:88:4d:9c:23:e0:6e:14:29:ed:d5:bb:a5:06:36:76:d9:41:
         2f:c7:15:22:1c:ca:87:82:f8:5c:3f:6f:fc:d9:c0:95:3c:65:
         bf:cc:a7:37:0d:95:3b:5e:46:fd:11:ab:f6:fd:2f:ca:dc:6a:
         e0:2d:06:78:ca:9e:5d:98:24:ec:d2:d1:34:86:ab:f5:d9:1d:
         5b:cf:74:13:6d:2c:40:1d:5f:ef:e5:cd:32:26:b9:e4:51:16:
         bb:34:71:ad:5a:a7:3b:14:4f:05:5b:9e:df:19:78:4f:71:eb:
         fe:33:39:15:4d:a5:8c:43:4b:6a:26:9d:8f:19:db:62:18:4a:
         18:bb:d5:d3:b4:3a:0b:40:bd:5c:67:46:f0:60:f9:98:67:e8:
         d6:74:a0:72
-----BEGIN CERTIFICATE-----
MIIE0zCCA7ugAwIBAgIBBDANBgkqhkiG9w0BAQsFADCBqDELMAkGA1UEBhMCSU4x
FDASBgNVBAgMC01haGFyYXNodHJhMQ0wCwYDVQQHDARQdW5lMSAwHgYDVQQKDBdK
b3NoIFNvZnR3YXJlIFB2dC4gTHRkLjEMMAoGA1UECwwDQ1NNMR0wGwYDVQQDDBRj
c20uam9zaHNvZnR3YXJlLmNvbTElMCMGCSqGSIb3DQEJARYWYWRtaW5Aam9zaHNv
ZnR3YXJlLmNvbTAeFw0yMzA0MjAxMTM2MzhaFw0yNDA0MTkxMTM2MzhaMHwxCzAJ
BgNVBAYTAklOMRQwEgYDVQQIDAtNYWhhcmFzaHRyYTEgMB4GA1UECgwXSm9zaCBT
b2Z0d2FyZSBQdnQuIEx0ZC4xDDAKBgNVBAsMA1BPQzENMAsGA1UEAwwEQ01TMjEY
MBYGCSqGSIb3DQEJARYJMUB4eXouY29tMIIBIjANBgkqhkiG9w0BAQEFAAOCAQ8A
MIIBCgKCAQEAzaZLnKQKgE0pXHVWif3oIU6P0a6WblV/C913TauRaFhSBDU6RnS9
fwag6MOG0gleHjj97BGbriUWL81608Fe5dFroZKKxEW/viNAEB4vI0CUuHYvUVbi
e8I8TVOSF4iaR/KoYUllk29Rae3eYMFAsXnXOEzgYN8CxqoeB4gICBfOEAL6z7a2
i9syYOUB9OvmExPSM0jQT7KCwe2Dl4bSsKFVEh1hE2DLxHiXwcCym+zxbZEnRGH9
HrSDP5mPnV1j6IiyHU9akhgubcXX93TKPt4ZpTSaw7fn+H6cGMRvGGAOonabaQM8
Upq7luuOfSwb5qZJv0jIerYLg/rwWOnuYwIDAQABo4IBMTCCAS0wCQYDVR0TBAIw
ADAsBglghkgBhvhCAQ0EHxYdT3BlblNTTCBHZW5lcmF0ZWQgQ2VydGlmaWNhdGUw
HQYDVR0OBBYEFGE/VkcGXpHh+eeZm3pbM2jvHvUIMIHSBgNVHSMEgcowgcehga6k
gaswgagxCzAJBgNVBAYTAklOMRQwEgYDVQQIDAtNYWhhcmFzaHRyYTENMAsGA1UE
BwwEUHVuZTEgMB4GA1UECgwXSm9zaCBTb2Z0d2FyZSBQdnQuIEx0ZC4xDDAKBgNV
BAsMA0NTTTEdMBsGA1UEAwwUY3NtLmpvc2hzb2Z0d2FyZS5jb20xJTAjBgkqhkiG
9w0BCQEWFmFkbWluQGpvc2hzb2Z0d2FyZS5jb22CFA86HZrzTYoDFgju1WyNL/+2
C5hiMA0GCSqGSIb3DQEBCwUAA4IBAQC47KaGiQwecLcTad4fCp3dcrnNUVRN3R1k
RFhhAIOv9/ZaFAZgZufAhmnoqNu3zEyvolhLGaZyYmucGwXrfftMduW/i/G1pQnW
vepyxr/DqMwtoQJmoY64B4/KWBF6dadwiqJsxoZLaxaBOxu/iE2cI+BuFCnt1bul
BjZ22UEvxxUiHMqHgvhcP2/82cCVPGW/zKc3DZU7Xkb9Eav2/S/K3GrgLQZ4yp5d
mCTs0tE0hqv12R1bz3QTbSxAHV/v5c0yJrnkURa7NHGtWqc7FE8FW57fGXhPcev+
MzkVTaWMQ0tqJp2PGdtiGEoYu9XTtDoLQL1cZ0bwYPmYZ+jWdKBy
-----END CERTIFICATE-----
