Certificate:
    Data:
        Version: 3 (0x2)
        Serial Number: 2 (0x2)
        Signature Algorithm: sha256WithRSAEncryption
        Issuer: C=IN, ST=Maharashtra, L=Pune, O=Josh Software Pvt. Ltd., OU=CSM, CN=csm.joshsoftware.com/emailAddress=admin@joshsoftware.com
        Validity
            Not Before: Apr 19 06:26:48 2023 GMT
            Not After : Apr 18 06:26:48 2024 GMT
        Subject: C=IN, ST=Maharashtra, O=Josh Software Pvt. Ltd., OU=csm client, CN=client16.joshsoftware.com/emailAddress=client15@joshsoftware.com
        Subject Public Key Info:
            Public Key Algorithm: rsaEncryption
                RSA Public-Key: (2048 bit)
                Modulus:
                    00:f7:b1:8f:9e:ad:30:12:2a:eb:ef:03:51:c3:dc:
                    0d:da:0b:6f:5c:ba:74:8a:15:cf:fd:dd:0d:cf:ae:
                    8d:df:61:f7:ce:37:7e:bc:99:ca:5f:b7:84:62:54:
                    2c:78:95:05:2f:25:68:8b:ce:be:4c:98:52:06:e2:
                    dc:ed:39:70:5c:41:0c:89:69:64:b5:46:95:14:16:
                    d2:a2:2e:8c:38:fc:3c:04:94:6c:16:75:f7:69:1e:
                    ba:fb:e9:57:86:64:89:c8:fd:ba:a6:d2:50:4a:d6:
                    54:9c:9d:52:fe:4f:33:bd:9e:6d:95:40:bc:fb:ec:
                    51:80:bb:8b:b2:34:3d:59:47:e3:2b:52:0d:c5:7b:
                    ab:78:2a:37:21:dc:d4:ad:39:ca:68:03:45:6b:d5:
                    45:c8:d3:86:5c:96:e3:84:9c:ed:56:76:a7:82:45:
                    34:10:3f:82:98:bf:5d:a2:1c:ca:37:7a:9a:62:87:
                    fb:35:a7:c6:99:8a:f2:f3:eb:63:39:3e:29:f0:4a:
                    78:36:2d:8f:9e:11:2f:04:c5:a0:79:60:df:52:f1:
                    d0:49:0a:29:44:1d:de:1d:9f:d0:ca:32:20:11:88:
                    39:49:27:a5:47:dc:68:f3:92:95:8d:ca:70:9d:13:
                    94:35:a3:48:67:b8:76:54:f6:eb:d1:3f:57:68:39:
                    95:eb
                Exponent: 65537 (0x10001)
        X509v3 extensions:
            X509v3 Basic Constraints: 
                CA:FALSE
            Netscape Comment: 
                OpenSSL Generated Certificate
            X509v3 Subject Key Identifier: 
                F8:BC:04:EF:21:06:ED:BC:A3:C5:42:B3:00:1E:4B:AE:E9:6A:7F:F0
            X509v3 Authority Key Identifier: 
                DirName:/C=IN/ST=Maharashtra/L=Pune/O=Josh Software Pvt. Ltd./OU=CSM/CN=csm.joshsoftware.com/emailAddress=admin@joshsoftware.com
                serial:0F:3A:1D:9A:F3:4D:8A:03:16:08:EE:D5:6C:8D:2F:FF:B6:0B:98:62

    Signature Algorithm: sha256WithRSAEncryption
         4b:da:d7:75:f3:f5:49:9b:78:4a:bd:20:d0:1d:f3:19:43:3a:
         df:c3:f1:0f:1a:ef:3a:89:ed:34:8a:05:a8:79:e0:01:63:18:
         8d:99:7b:69:d0:86:4a:d5:40:3e:e7:53:22:63:06:b8:f3:3b:
         56:11:36:17:bc:e4:f9:bc:5e:06:f8:04:28:ce:93:9e:14:03:
         4b:c0:dd:e3:d2:f1:28:03:39:37:39:80:aa:b1:f7:7e:13:27:
         0c:c7:93:2a:48:59:ad:cc:eb:cf:60:14:5c:67:7b:1b:cb:54:
         d8:16:ae:05:a8:b5:0a:a7:fd:3f:d8:41:c4:43:1e:9d:49:35:
         85:ca:e4:0b:c9:61:93:c1:8c:08:37:11:00:b8:91:08:d2:db:
         fa:60:a9:6e:0c:dd:bd:a5:1c:95:58:2b:7a:79:8c:fb:dc:18:
         ee:6d:06:cc:ab:7e:54:e4:d2:4e:53:1b:02:cd:90:cb:70:e6:
         d8:d8:27:28:ea:01:74:ba:10:ee:b2:33:ac:c6:09:48:3d:b5:
         fa:38:b4:e2:cf:a7:8c:b8:d5:34:f7:3b:2d:06:2f:8c:08:f1:
         12:7e:81:13:ed:39:98:bb:03:ef:ea:5f:be:47:0d:11:df:8d:
         8f:e6:65:7b:ee:2e:2e:83:b1:ce:79:c8:0b:df:23:3b:fd:68:
         a5:9a:a8:67
-----BEGIN CERTIFICATE-----
MIIFADCCA+igAwIBAgIBAjANBgkqhkiG9w0BAQsFADCBqDELMAkGA1UEBhMCSU4x
FDASBgNVBAgMC01haGFyYXNodHJhMQ0wCwYDVQQHDARQdW5lMSAwHgYDVQQKDBdK
b3NoIFNvZnR3YXJlIFB2dC4gTHRkLjEMMAoGA1UECwwDQ1NNMR0wGwYDVQQDDBRj
c20uam9zaHNvZnR3YXJlLmNvbTElMCMGCSqGSIb3DQEJARYWYWRtaW5Aam9zaHNv
ZnR3YXJlLmNvbTAeFw0yMzA0MTkwNjI2NDhaFw0yNDA0MTgwNjI2NDhaMIGoMQsw
CQYDVQQGEwJJTjEUMBIGA1UECAwLTWFoYXJhc2h0cmExIDAeBgNVBAoMF0pvc2gg
U29mdHdhcmUgUHZ0LiBMdGQuMRMwEQYDVQQLDApjc20gY2xpZW50MSIwIAYDVQQD
DBljbGllbnQxNi5qb3Noc29mdHdhcmUuY29tMSgwJgYJKoZIhvcNAQkBFhljbGll
bnQxNUBqb3Noc29mdHdhcmUuY29tMIIBIjANBgkqhkiG9w0BAQEFAAOCAQ8AMIIB
CgKCAQEA97GPnq0wEirr7wNRw9wN2gtvXLp0ihXP/d0Nz66N32H3zjd+vJnKX7eE
YlQseJUFLyVoi86+TJhSBuLc7TlwXEEMiWlktUaVFBbSoi6MOPw8BJRsFnX3aR66
++lXhmSJyP26ptJQStZUnJ1S/k8zvZ5tlUC8++xRgLuLsjQ9WUfjK1INxXureCo3
IdzUrTnKaANFa9VFyNOGXJbjhJztVnangkU0ED+CmL9dohzKN3qaYof7NafGmYry
8+tjOT4p8Ep4Ni2PnhEvBMWgeWDfUvHQSQopRB3eHZ/QyjIgEYg5SSelR9xo85KV
jcpwnROUNaNIZ7h2VPbr0T9XaDmV6wIDAQABo4IBMTCCAS0wCQYDVR0TBAIwADAs
BglghkgBhvhCAQ0EHxYdT3BlblNTTCBHZW5lcmF0ZWQgQ2VydGlmaWNhdGUwHQYD
VR0OBBYEFPi8BO8hBu28o8VCswAeS67pan/wMIHSBgNVHSMEgcowgcehga6kgasw
gagxCzAJBgNVBAYTAklOMRQwEgYDVQQIDAtNYWhhcmFzaHRyYTENMAsGA1UEBwwE
UHVuZTEgMB4GA1UECgwXSm9zaCBTb2Z0d2FyZSBQdnQuIEx0ZC4xDDAKBgNVBAsM
A0NTTTEdMBsGA1UEAwwUY3NtLmpvc2hzb2Z0d2FyZS5jb20xJTAjBgkqhkiG9w0B
CQEWFmFkbWluQGpvc2hzb2Z0d2FyZS5jb22CFA86HZrzTYoDFgju1WyNL/+2C5hi
MA0GCSqGSIb3DQEBCwUAA4IBAQBL2td18/VJm3hKvSDQHfMZQzrfw/EPGu86ie00
igWoeeABYxiNmXtp0IZK1UA+51MiYwa48ztWETYXvOT5vF4G+AQozpOeFANLwN3j
0vEoAzk3OYCqsfd+EycMx5MqSFmtzOvPYBRcZ3sby1TYFq4FqLUKp/0/2EHEQx6d
STWFyuQLyWGTwYwINxEAuJEI0tv6YKluDN29pRyVWCt6eYz73BjubQbMq35U5NJO
UxsCzZDLcObY2Cco6gF0uhDusjOsxglIPbX6OLTiz6eMuNU09zstBi+MCPESfoET
7TmYuwPv6l++Rw0R342P5mV77i4ug7HOecgL3yM7/Wilmqhn
-----END CERTIFICATE-----
