Certificate:
    Data:
        Version: 3 (0x2)
        Serial Number: 32 (0x20)
        Signature Algorithm: sha256WithRSAEncryption
        Issuer: C=IN, ST=Maharashtra, L=Pune, O=Josh Software Pvt. Ltd., OU=CSM, CN=csm.joshsoftware.com/emailAddress=admin@joshsoftware.com
        Validity
            Not Before: Apr 21 06:21:43 2023 GMT
            Not After : Apr 20 06:21:43 2024 GMT
        Subject: C=IN, ST=Maharashtra, O=Josh Software Pvt. Ltd., OU=POC, CN=CMS/emailAddress=abc1@xyz.com
        Subject Public Key Info:
            Public Key Algorithm: rsaEncryption
                RSA Public-Key: (2048 bit)
                Modulus:
                    00:c8:99:28:94:fd:31:fc:94:d0:c6:c2:f1:d0:b9:
                    1f:b5:16:52:81:a1:f7:55:15:2e:f3:ae:e0:55:c3:
                    a8:e3:6a:18:09:c6:ba:0b:57:70:e8:44:3f:cd:e0:
                    b7:bc:e5:94:20:f1:f3:b0:a7:28:70:92:20:86:f8:
                    3a:f2:6a:72:2d:c3:63:de:ef:42:44:e2:c9:37:e6:
                    41:9c:e1:0c:33:28:d8:b4:06:ff:3f:91:21:d8:b3:
                    60:e1:41:26:c6:4a:bf:3d:41:45:6c:cd:40:fd:7d:
                    4f:66:36:d6:e7:5e:17:6a:ad:d5:d0:39:7a:85:ea:
                    23:75:01:65:a9:80:f0:0c:aa:c9:3f:56:54:3e:91:
                    28:ed:32:6a:5b:50:e6:12:c2:e3:df:42:0a:0e:59:
                    de:57:20:50:8c:c3:2b:79:ca:f1:26:5c:0f:a1:1d:
                    a5:fe:db:f5:67:d4:75:fc:36:a0:c1:2c:68:1d:23:
                    85:6a:7c:cc:3d:6b:cc:2a:d4:da:be:0a:a2:19:4c:
                    3e:8a:ca:03:41:ed:bb:dd:99:d3:30:07:0c:fd:44:
                    22:48:fe:ef:93:13:aa:7e:fa:63:0d:88:1c:93:98:
                    e0:03:f6:5e:fd:b3:7e:20:a3:b1:9f:23:58:a1:62:
                    96:4d:1e:78:c0:91:1d:c6:85:bb:6d:5e:cb:0f:92:
                    8a:37
                Exponent: 65537 (0x10001)
        X509v3 extensions:
            X509v3 Basic Constraints: 
                CA:FALSE
            Netscape Comment: 
                OpenSSL Generated Certificate
            X509v3 Subject Key Identifier: 
                02:19:66:AB:2F:92:E1:83:6C:C8:AA:48:3D:77:D3:C4:6D:4B:14:4F
            X509v3 Authority Key Identifier: 
                DirName:/C=IN/ST=Maharashtra/L=Pune/O=Josh Software Pvt. Ltd./OU=CSM/CN=csm.joshsoftware.com/emailAddress=admin@joshsoftware.com
                serial:0F:3A:1D:9A:F3:4D:8A:03:16:08:EE:D5:6C:8D:2F:FF:B6:0B:98:62

    Signature Algorithm: sha256WithRSAEncryption
         8b:04:f9:c8:1e:61:ca:8e:8a:5f:12:2c:c3:84:17:2b:6b:f0:
         ed:41:2e:7f:4c:4e:e6:b6:a9:e9:03:a6:a6:6f:0a:74:9a:ac:
         aa:b6:92:41:0c:39:4b:b2:a2:c0:57:72:3e:76:59:e6:d4:6e:
         66:a0:55:22:b4:3b:95:b6:ef:94:38:5a:f8:97:ce:ad:10:8b:
         82:e9:4d:a2:4e:4c:b9:51:9a:f2:44:fb:12:a9:c6:12:53:a7:
         49:5d:86:55:8b:c6:8d:d0:f2:6d:ba:85:26:8b:b3:98:0d:cd:
         31:d5:03:01:a1:85:8d:89:ed:b8:b7:06:8c:01:be:f9:3b:4c:
         21:01:17:ad:f2:27:02:75:5a:9f:67:f4:ed:12:1b:8b:0a:af:
         82:1c:50:ce:5f:fd:34:03:30:88:2e:0a:91:64:5e:36:c8:8b:
         9b:9a:fd:09:a5:91:1f:17:a5:d0:81:89:05:c9:a3:bb:73:22:
         71:8d:5d:71:f1:25:77:85:3d:08:2d:e5:16:e4:03:49:d1:cc:
         e8:db:a0:f9:95:cf:ca:73:6c:b8:1c:80:5c:63:90:a0:93:83:
         8d:9e:18:44:b0:07:ff:a7:8e:2e:27:a8:ba:f5:19:ca:82:46:
         95:37:a8:d2:b1:2e:fd:6a:13:50:99:cb:ed:7c:70:ab:e0:82:
         be:c0:6d:5d
-----BEGIN CERTIFICATE-----
MIIE1TCCA72gAwIBAgIBIDANBgkqhkiG9w0BAQsFADCBqDELMAkGA1UEBhMCSU4x
FDASBgNVBAgMC01haGFyYXNodHJhMQ0wCwYDVQQHDARQdW5lMSAwHgYDVQQKDBdK
b3NoIFNvZnR3YXJlIFB2dC4gTHRkLjEMMAoGA1UECwwDQ1NNMR0wGwYDVQQDDBRj
c20uam9zaHNvZnR3YXJlLmNvbTElMCMGCSqGSIb3DQEJARYWYWRtaW5Aam9zaHNv
ZnR3YXJlLmNvbTAeFw0yMzA0MjEwNjIxNDNaFw0yNDA0MjAwNjIxNDNaMH4xCzAJ
BgNVBAYTAklOMRQwEgYDVQQIDAtNYWhhcmFzaHRyYTEgMB4GA1UECgwXSm9zaCBT
b2Z0d2FyZSBQdnQuIEx0ZC4xDDAKBgNVBAsMA1BPQzEMMAoGA1UEAwwDQ01TMRsw
GQYJKoZIhvcNAQkBFgxhYmMxQHh5ei5jb20wggEiMA0GCSqGSIb3DQEBAQUAA4IB
DwAwggEKAoIBAQDImSiU/TH8lNDGwvHQuR+1FlKBofdVFS7zruBVw6jjahgJxroL
V3DoRD/N4Le85ZQg8fOwpyhwkiCG+DryanItw2Pe70JE4sk35kGc4QwzKNi0Bv8/
kSHYs2DhQSbGSr89QUVszUD9fU9mNtbnXhdqrdXQOXqF6iN1AWWpgPAMqsk/VlQ+
kSjtMmpbUOYSwuPfQgoOWd5XIFCMwyt5yvEmXA+hHaX+2/Vn1HX8NqDBLGgdI4Vq
fMw9a8wq1Nq+CqIZTD6KygNB7bvdmdMwBwz9RCJI/u+TE6p++mMNiByTmOAD9l79
s34go7GfI1ihYpZNHnjAkR3GhbttXssPkoo3AgMBAAGjggExMIIBLTAJBgNVHRME
AjAAMCwGCWCGSAGG+EIBDQQfFh1PcGVuU1NMIEdlbmVyYXRlZCBDZXJ0aWZpY2F0
ZTAdBgNVHQ4EFgQUAhlmqy+S4YNsyKpIPXfTxG1LFE8wgdIGA1UdIwSByjCBx6GB
rqSBqzCBqDELMAkGA1UEBhMCSU4xFDASBgNVBAgMC01haGFyYXNodHJhMQ0wCwYD
VQQHDARQdW5lMSAwHgYDVQQKDBdKb3NoIFNvZnR3YXJlIFB2dC4gTHRkLjEMMAoG
A1UECwwDQ1NNMR0wGwYDVQQDDBRjc20uam9zaHNvZnR3YXJlLmNvbTElMCMGCSqG
SIb3DQEJARYWYWRtaW5Aam9zaHNvZnR3YXJlLmNvbYIUDzodmvNNigMWCO7VbI0v
/7YLmGIwDQYJKoZIhvcNAQELBQADggEBAIsE+cgeYcqOil8SLMOEFytr8O1BLn9M
Tua2qekDpqZvCnSarKq2kkEMOUuyosBXcj52WebUbmagVSK0O5W275Q4WviXzq0Q
i4LpTaJOTLlRmvJE+xKpxhJTp0ldhlWLxo3Q8m26hSaLs5gNzTHVAwGhhY2J7bi3
BowBvvk7TCEBF63yJwJ1Wp9n9O0SG4sKr4IcUM5f/TQDMIguCpFkXjbIi5ua/Qml
kR8XpdCBiQXJo7tzInGNXXHxJXeFPQgt5RbkA0nRzOjboPmVz8pzbLgcgFxjkKCT
g42eGESwB/+nji4nqLr1GcqCRpU3qNKxLv1qE1CZy+18cKvggr7AbV0=
-----END CERTIFICATE-----
